; Function Attrs: mustprogress uwtable
define noundef i32 @_ZN3zmq16null_mechanism_t21process_ready_commandEPKhm(ptr noundef nonnull align 8 dereferenceable(1576) initializes((74, 75)) %0, ptr noundef %1, i64 noundef %2) local_unnamed_addr #0 align 2 {
  %4 = getelementptr inbounds nuw i8, ptr %0, i64 74
  store i8 1, ptr %4, align 2, !tbaa !68
  %5 = getelementptr inbounds nuw i8, ptr %0, i64 80
  %6 = getelementptr inbounds nuw i8, ptr %1, i64 6
  %7 = add i64 %2, -6
  %8 = tail call noundef i32 @_ZN3zmq11mechanism_t14parse_metadataEPKhmb(ptr noundef nonnull align 8 dereferenceable(1488) %5, ptr noundef nonnull %6, i64 noundef %7, i1 noundef zeroext false)
  ret i32 %8
}